target datalayout = "e-m:e-p270:32:32-p271:32:32-p272:64:64-i64:64-i128:128-f80:128-n8:16:32:64-S128"
target triple = "x86_64-pc-linux-gnu"

%struct.H5O_storage_virtual_name_seg_t = type { ptr, ptr }

@H5D_init_g = external global i8, align 1
@H5_libterm_g = external global i8, align 1
@.str.1 = private unnamed_addr constant [104 x i8] c"generated/home/dtcxzyw/WorkSpace/Projects/compilers/llvm-opt-benchmark/bench/hdf5/hdf5/src/H5Dvirtual.c\00", align 1
@H5E_DATASET_g = external global i64, align 8
@H5E_RESOURCE_g = external global i64, align 8
@H5E_CANTALLOC_g = external global i64, align 8
@__func__.H5D__virtual_build_source_name = private unnamed_addr constant [31 x i8] c"H5D__virtual_build_source_name\00", align 1
@.str.84 = private unnamed_addr constant [31 x i8] c"unable to allocate name buffer\00", align 1
@.str.85 = private unnamed_addr constant [5 x i8] c"%llu\00", align 1
@H5E_WRITEERROR_g = external global i64, align 8
@.str.86 = private unnamed_addr constant [39 x i8] c"unable to write block number to string\00", align 1

; Function Attrs: nounwind uwtable
define internal i32 @H5D__virtual_build_source_name(ptr noundef %0, ptr noundef %1, i64 noundef %2, i64 noundef %3, i64 noundef %4, ptr noundef %5) #0 {
  %7 = alloca i32, align 4
  %8 = alloca ptr, align 8
  %9 = alloca ptr, align 8
  %10 = alloca i64, align 8
  %11 = alloca i64, align 8
  %12 = alloca i64, align 8
  %13 = alloca ptr, align 8
  %14 = alloca ptr, align 8
  %15 = alloca i32, align 4
  %16 = alloca i8, align 1
  %17 = alloca ptr, align 8
  %18 = alloca ptr, align 8
  %19 = alloca i64, align 8
  %20 = alloca i64, align 8
  %21 = alloca i64, align 8
  %22 = alloca i64, align 8
  %23 = alloca i64, align 8
  %24 = alloca i64, align 8
  %25 = alloca i32, align 4
  store ptr %0, ptr %8, align 8, !tbaa !132
  store ptr %1, ptr %9, align 8, !tbaa !159
  store i64 %2, ptr %10, align 8, !tbaa !10
  store i64 %3, ptr %11, align 8, !tbaa !10
  store i64 %4, ptr %12, align 8, !tbaa !10
  store ptr %5, ptr %13, align 8, !tbaa !173
  call void @llvm.lifetime.start.p0(i64 8, ptr %14) #10
  store ptr null, ptr %14, align 8, !tbaa !132
  call void @llvm.lifetime.start.p0(i64 4, ptr %15) #10
  store i32 0, ptr %15, align 4, !tbaa !12
  call void @llvm.lifetime.start.p0(i64 1, ptr %16) #10
  store i8 0, ptr %16, align 1, !tbaa !14
  %26 = load i8, ptr @H5D_init_g, align 1, !tbaa !14, !range !16, !noundef !17
  %27 = trunc i8 %26 to i1
  br i1 %27, label %32, label %28

28:                                               ; preds = %6
  %29 = load i8, ptr @H5_libterm_g, align 1, !tbaa !14, !range !16, !noundef !17
  %30 = trunc i8 %29 to i1
  %31 = xor i1 %30, true
  br label %32

32:                                               ; preds = %28, %6
  %33 = phi i1 [ true, %6 ], [ %31, %28 ]
  %34 = xor i1 %33, true
  %35 = xor i1 %34, true
  %36 = zext i1 %35 to i32
  %37 = sext i32 %36 to i64
  %38 = call i64 @llvm.expect.i64(i64 %37, i64 1)
  %39 = icmp ne i64 %38, 0
  br i1 %39, label %40, label %179

40:                                               ; preds = %32
  %41 = load i64, ptr %11, align 8, !tbaa !10
  %42 = icmp eq i64 %41, 0
  br i1 %42, label %43, label %55

43:                                               ; preds = %40
  %44 = load ptr, ptr %9, align 8, !tbaa !159
  %45 = icmp ne ptr %44, null
  br i1 %45, label %46, label %51

46:                                               ; preds = %43
  %47 = load ptr, ptr %9, align 8, !tbaa !159
  %48 = getelementptr inbounds nuw %struct.H5O_storage_virtual_name_seg_t, ptr %47, i32 0, i32 0
  %49 = load ptr, ptr %48, align 8, !tbaa !148
  %50 = load ptr, ptr %13, align 8, !tbaa !173
  store ptr %49, ptr %50, align 8, !tbaa !132
  br label %54

51:                                               ; preds = %43
  %52 = load ptr, ptr %8, align 8, !tbaa !132
  %53 = load ptr, ptr %13, align 8, !tbaa !173
  store ptr %52, ptr %53, align 8, !tbaa !132
  br label %54

54:                                               ; preds = %51, %46
  br label %172

55:                                               ; preds = %40
  call void @llvm.lifetime.start.p0(i64 8, ptr %17) #10
  %56 = load ptr, ptr %9, align 8, !tbaa !159
  store ptr %56, ptr %17, align 8, !tbaa !159
  call void @llvm.lifetime.start.p0(i64 8, ptr %18) #10
  call void @llvm.lifetime.start.p0(i64 8, ptr %19) #10
  %57 = load i64, ptr %12, align 8, !tbaa !10
  store i64 %57, ptr %19, align 8, !tbaa !10
  call void @llvm.lifetime.start.p0(i64 8, ptr %20) #10
  store i64 1, ptr %20, align 8, !tbaa !10
  call void @llvm.lifetime.start.p0(i64 8, ptr %21) #10
  call void @llvm.lifetime.start.p0(i64 8, ptr %22) #10
  call void @llvm.lifetime.start.p0(i64 8, ptr %23) #10
  call void @llvm.lifetime.start.p0(i64 8, ptr %24) #10
  %58 = load i64, ptr %11, align 8, !tbaa !10
  store i64 %58, ptr %24, align 8, !tbaa !10
  br label %59

59:                                               ; preds = %68, %55
  %60 = load i64, ptr %19, align 8, !tbaa !10
  %61 = udiv i64 %60, 10
  store i64 %61, ptr %19, align 8, !tbaa !10
  %62 = load i64, ptr %19, align 8, !tbaa !10
  %63 = icmp eq i64 %62, 0
  br i1 %63, label %64, label %65

64:                                               ; preds = %59
  br label %69

65:                                               ; preds = %59
  %66 = load i64, ptr %20, align 8, !tbaa !10
  %67 = add i64 %66, 1
  store i64 %67, ptr %20, align 8, !tbaa !10
  br label %68

68:                                               ; preds = %65
  br i1 true, label %59, label %69

69:                                               ; preds = %68, %64
  %70 = load i64, ptr %10, align 8, !tbaa !10
  %71 = load i64, ptr %11, align 8, !tbaa !10
  %72 = load i64, ptr %20, align 8, !tbaa !10
  %73 = mul i64 %71, %72
  %74 = add i64 %70, %73
  %75 = add i64 %74, 1
  store i64 %75, ptr %21, align 8, !tbaa !10
  store i64 %75, ptr %22, align 8, !tbaa !10
  %76 = load i64, ptr %21, align 8, !tbaa !10
  %77 = call noalias ptr @malloc(i64 noundef %76) #11
  store ptr %77, ptr %14, align 8, !tbaa !132
  %78 = icmp eq ptr null, %77
  br i1 %78, label %79, label %98

79:                                               ; preds = %69
  br label %80

80:                                               ; preds = %79
  br label %81

81:                                               ; preds = %80
  br label %82

82:                                               ; preds = %81
  %83 = load i64, ptr @H5E_RESOURCE_g, align 8, !tbaa !10
  %84 = load i64, ptr @H5E_CANTALLOC_g, align 8, !tbaa !10
  %85 = call i32 (ptr, ptr, i32, i64, i64, ptr, ...) @H5E_printf_stack(ptr noundef @.str.1, ptr noundef @__func__.H5D__virtual_build_source_name, i32 noundef 1335, i64 noundef %83, i64 noundef %84, ptr noundef @.str.84)
  br label %86

86:                                               ; preds = %82
  br label %87

87:                                               ; preds = %86
  store i8 1, ptr %16, align 1, !tbaa !14
  %88 = load i8, ptr %16, align 1, !tbaa !14, !range !16, !noundef !17
  %89 = trunc i8 %88 to i1
  %90 = zext i1 %89 to i8
  store i8 %90, ptr %16, align 1, !tbaa !14
  br label %91

91:                                               ; preds = %87
  br label %92

92:                                               ; preds = %91
  br label %93

93:                                               ; preds = %92
  store i32 -1, ptr %15, align 4, !tbaa !12
  store i32 12, ptr %25, align 4
  br label %169

94:                                               ; No predecessors!
  br label %95

95:                                               ; preds = %94
  br label %96

96:                                               ; preds = %95
  br label %97

97:                                               ; preds = %96
  br label %98

98:                                               ; preds = %97, %69
  %99 = load ptr, ptr %14, align 8, !tbaa !132
  store ptr %99, ptr %18, align 8, !tbaa !132
  br label %100

100:                                              ; preds = %163, %98
  %101 = load ptr, ptr %17, align 8, !tbaa !159
  %102 = getelementptr inbounds nuw %struct.H5O_storage_virtual_name_seg_t, ptr %101, i32 0, i32 0
  %103 = load ptr, ptr %102, align 8, !tbaa !148
  %104 = icmp ne ptr %103, null
  br i1 %104, label %105, label %122

105:                                              ; preds = %100
  %106 = load ptr, ptr %17, align 8, !tbaa !159
  %107 = getelementptr inbounds nuw %struct.H5O_storage_virtual_name_seg_t, ptr %106, i32 0, i32 0
  %108 = load ptr, ptr %107, align 8, !tbaa !148
  %109 = call i64 @strlen(ptr noundef %108) #12
  store i64 %109, ptr %23, align 8, !tbaa !10
  %110 = load ptr, ptr %18, align 8, !tbaa !132
  %111 = load ptr, ptr %17, align 8, !tbaa !159
  %112 = getelementptr inbounds nuw %struct.H5O_storage_virtual_name_seg_t, ptr %111, i32 0, i32 0
  %113 = load ptr, ptr %112, align 8, !tbaa !148
  %114 = load i64, ptr %22, align 8, !tbaa !10
  %115 = call ptr @strncpy(ptr noundef %110, ptr noundef %113, i64 noundef %114) #10
  %116 = load i64, ptr %23, align 8, !tbaa !10
  %117 = load i64, ptr %22, align 8, !tbaa !10
  %118 = sub i64 %117, %116
  store i64 %118, ptr %22, align 8, !tbaa !10
  %119 = load i64, ptr %23, align 8, !tbaa !10
  %120 = load ptr, ptr %18, align 8, !tbaa !132
  %121 = getelementptr inbounds nuw i8, ptr %120, i64 %119
  store ptr %121, ptr %18, align 8, !tbaa !132
  br label %122

122:                                              ; preds = %105, %100
  %123 = load i64, ptr %24, align 8, !tbaa !10
  %124 = icmp ugt i64 %123, 0
  br i1 %124, label %125, label %159

125:                                              ; preds = %122
  %126 = load ptr, ptr %18, align 8, !tbaa !132
  %127 = load i64, ptr %22, align 8, !tbaa !10
  %128 = load i64, ptr %12, align 8, !tbaa !10
  %129 = call i32 (ptr, i64, ptr, ...) @snprintf(ptr noundef %126, i64 noundef %127, ptr noundef @.str.85, i64 noundef %128) #10
  %130 = icmp slt i32 %129, 0
  br i1 %130, label %131, label %150

131:                                              ; preds = %125
  br label %132

132:                                              ; preds = %131
  br label %133

133:                                              ; preds = %132
  br label %134

134:                                              ; preds = %133
  %135 = load i64, ptr @H5E_DATASET_g, align 8, !tbaa !10
  %136 = load i64, ptr @H5E_WRITEERROR_g, align 8, !tbaa !10
  %137 = call i32 (ptr, ptr, i32, i64, i64, ptr, ...) @H5E_printf_stack(ptr noundef @.str.1, ptr noundef @__func__.H5D__virtual_build_source_name, i32 noundef 1354, i64 noundef %135, i64 noundef %136, ptr noundef @.str.86)
  br label %138

138:                                              ; preds = %134
  br label %139

139:                                              ; preds = %138
  store i8 1, ptr %16, align 1, !tbaa !14
  %140 = load i8, ptr %16, align 1, !tbaa !14, !range !16, !noundef !17
  %141 = trunc i8 %140 to i1
  %142 = zext i1 %141 to i8
  store i8 %142, ptr %16, align 1, !tbaa !14
  br label %143

143:                                              ; preds = %139
  br label %144

144:                                              ; preds = %143
  br label %145

145:                                              ; preds = %144
  store i32 -1, ptr %15, align 4, !tbaa !12
  store i32 12, ptr %25, align 4
  br label %169

146:                                              ; No predecessors!
  br label %147

147:                                              ; preds = %146
  br label %148

148:                                              ; preds = %147
  br label %149

149:                                              ; preds = %148
  br label %150

150:                                              ; preds = %149, %125
  %151 = load i64, ptr %20, align 8, !tbaa !10
  %152 = load i64, ptr %22, align 8, !tbaa !10
  %153 = sub i64 %152, %151
  store i64 %153, ptr %22, align 8, !tbaa !10
  %154 = load i64, ptr %20, align 8, !tbaa !10
  %155 = load ptr, ptr %18, align 8, !tbaa !132
  %156 = getelementptr inbounds nuw i8, ptr %155, i64 %154
  store ptr %156, ptr %18, align 8, !tbaa !132
  %157 = load i64, ptr %24, align 8, !tbaa !10
  %158 = add i64 %157, -1
  store i64 %158, ptr %24, align 8, !tbaa !10
  br label %159

159:                                              ; preds = %150, %122
  %160 = load ptr, ptr %17, align 8, !tbaa !159
  %161 = getelementptr inbounds nuw %struct.H5O_storage_virtual_name_seg_t, ptr %160, i32 0, i32 1
  %162 = load ptr, ptr %161, align 8, !tbaa !160
  store ptr %162, ptr %17, align 8, !tbaa !159
  br label %163

163:                                              ; preds = %159
  %164 = load ptr, ptr %17, align 8, !tbaa !159
  %165 = icmp ne ptr %164, null
  br i1 %165, label %100, label %166, !llvm.loop !190

166:                                              ; preds = %163
  %167 = load ptr, ptr %14, align 8, !tbaa !132
  %168 = load ptr, ptr %13, align 8, !tbaa !173
  store ptr %167, ptr %168, align 8, !tbaa !132
  store ptr null, ptr %14, align 8, !tbaa !132
  store i32 0, ptr %25, align 4
  br label %169

169:                                              ; preds = %145, %93, %166
  call void @llvm.lifetime.end.p0(i64 8, ptr %24) #10
  call void @llvm.lifetime.end.p0(i64 8, ptr %23) #10
  call void @llvm.lifetime.end.p0(i64 8, ptr %22) #10
  call void @llvm.lifetime.end.p0(i64 8, ptr %21) #10
  call void @llvm.lifetime.end.p0(i64 8, ptr %20) #10
  call void @llvm.lifetime.end.p0(i64 8, ptr %19) #10
  call void @llvm.lifetime.end.p0(i64 8, ptr %18) #10
  call void @llvm.lifetime.end.p0(i64 8, ptr %17) #10
  %170 = load i32, ptr %25, align 4
  switch i32 %170, label %181 [
    i32 0, label %171
    i32 12, label %173
  ]

171:                                              ; preds = %169
  br label %172

172:                                              ; preds = %171, %54
  br label %173

173:                                              ; preds = %172, %169
  %174 = load ptr, ptr %14, align 8, !tbaa !132
  %175 = icmp ne ptr %174, null
  br i1 %175, label %176, label %178

176:                                              ; preds = %173
  %177 = load ptr, ptr %14, align 8, !tbaa !132
  call void @free(ptr noundef %177) #10
  br label %178

178:                                              ; preds = %176, %173
  br label %179

179:                                              ; preds = %178, %32
  %180 = load i32, ptr %15, align 4, !tbaa !12
  store i32 %180, ptr %7, align 4
  store i32 1, ptr %25, align 4
  br label %181

181:                                              ; preds = %179, %169
  call void @llvm.lifetime.end.p0(i64 1, ptr %16) #10
  call void @llvm.lifetime.end.p0(i64 4, ptr %15) #10
  call void @llvm.lifetime.end.p0(i64 8, ptr %14) #10
  %182 = load i32, ptr %7, align 4
  ret i32 %182
}