; Function Attrs: nounwind uwtable
define internal fastcc range(i32 -1, 1) i32 @H5D__virtual_build_source_name(ptr noundef %0, ptr noundef readonly captures(address_is_null) %1, i64 noundef %2, i64 noundef %3, i64 noundef %4, ptr noundef writeonly captures(none) %5) unnamed_addr #0 {
  %7 = load i8, ptr @H5D_init_g, align 1, !tbaa !3, !range !7, !noundef !8
  %8 = trunc nuw i8 %7 to i1
  %9 = load i8, ptr @H5_libterm_g, align 1, !range !7
  %10 = trunc nuw i8 %9 to i1
  %11 = xor i1 %10, true
  %12 = select i1 %8, i1 true, i1 %11
  br i1 %12, label %13, label %.thread, !prof !9

13:                                               ; preds = %6
  %14 = icmp eq i64 %3, 0
  br i1 %14, label %16, label %.preheader74

.preheader74:                                     ; preds = %13
  %15 = icmp ult i64 %4, 10
  br i1 %15, label %._crit_edge, label %.lr.ph

16:                                               ; preds = %13
  %.not69 = icmp eq ptr %1, null
  br i1 %.not69, label %19, label %17

17:                                               ; preds = %16
  %18 = load ptr, ptr %1, align 8, !tbaa !132
  store ptr %18, ptr %5, align 8, !tbaa !121
  br label %.thread

19:                                               ; preds = %16
  store ptr %0, ptr %5, align 8, !tbaa !121
  br label %.thread

.lr.ph:                                           ; preds = %.preheader74, %.lr.ph
  %.05176 = phi i64 [ %21, %.lr.ph ], [ 1, %.preheader74 ]
  %.05275 = phi i64 [ %20, %.lr.ph ], [ %4, %.preheader74 ]
  %20 = udiv i64 %.05275, 10
  %21 = add i64 %.05176, 1
  %22 = icmp ult i64 %.05275, 100
  br i1 %22, label %._crit_edge, label %.lr.ph

._crit_edge:                                      ; preds = %.lr.ph, %.preheader74
  %.051.lcssa = phi i64 [ 1, %.preheader74 ], [ %21, %.lr.ph ]
  %23 = mul i64 %.051.lcssa, %3
  %24 = add i64 %2, 1
  %25 = add i64 %24, %23
  %26 = tail call noalias ptr @malloc(i64 noundef %25) #15
  %27 = icmp eq ptr %26, null
  br i1 %27, label %28, label %.preheader

28:                                               ; preds = %._crit_edge
  %29 = load i64, ptr @H5E_RESOURCE_g, align 8, !tbaa !24
  %30 = load i64, ptr @H5E_CANTALLOC_g, align 8, !tbaa !24
  %31 = tail call i32 (ptr, ptr, i32, i64, i64, ptr, ...) @H5E_printf_stack(ptr noundef nonnull @.str.1, ptr noundef nonnull @__func__.H5D__virtual_build_source_name, i32 noundef 1335, i64 noundef %29, i64 noundef %30, ptr noundef nonnull @.str.84) #14
  br label %.thread

.preheader:                                       ; preds = %._crit_edge, %46
  %.056 = phi ptr [ %48, %46 ], [ %1, %._crit_edge ]
  %.053 = phi ptr [ %.255, %46 ], [ %26, %._crit_edge ]
  %.047 = phi i64 [ %.2, %46 ], [ %25, %._crit_edge ]
  %.045 = phi i64 [ %.1, %46 ], [ %3, %._crit_edge ]
  %32 = load ptr, ptr %.056, align 8, !tbaa !132
  %.not = icmp eq ptr %32, null
  br i1 %.not, label %38, label %33

33:                                               ; preds = %.preheader
  %34 = tail call i64 @strlen(ptr noundef nonnull dereferenceable(1) %32) #16
  %35 = tail call ptr @strncpy(ptr noundef %.053, ptr noundef nonnull %32, i64 noundef %.047) #14
  %36 = sub i64 %.047, %34
  %37 = getelementptr inbounds nuw i8, ptr %.053, i64 %34
  br label %38

38:                                               ; preds = %33, %.preheader
  %.154 = phi ptr [ %37, %33 ], [ %.053, %.preheader ]
  %.148 = phi i64 [ %36, %33 ], [ %.047, %.preheader ]
  %.not67 = icmp eq i64 %.045, 0
  br i1 %.not67, label %46, label %39

39:                                               ; preds = %38
  %40 = tail call i32 (ptr, i64, ptr, ...) @snprintf(ptr noundef %.154, i64 noundef %.148, ptr noundef nonnull @.str.85, i64 noundef %4) #14
  %41 = icmp slt i32 %40, 0
  br i1 %41, label %50, label %42

42:                                               ; preds = %39
  %43 = sub i64 %.148, %.051.lcssa
  %44 = getelementptr inbounds nuw i8, ptr %.154, i64 %.051.lcssa
  %45 = add i64 %.045, -1
  br label %46

46:                                               ; preds = %42, %38
  %.255 = phi ptr [ %44, %42 ], [ %.154, %38 ]
  %.2 = phi i64 [ %43, %42 ], [ %.148, %38 ]
  %.1 = phi i64 [ %45, %42 ], [ 0, %38 ]
  %47 = getelementptr inbounds nuw i8, ptr %.056, i64 8
  %48 = load ptr, ptr %47, align 8, !tbaa !142
  %.not68 = icmp eq ptr %48, null
  br i1 %.not68, label %49, label %.preheader, !llvm.loop !169

49:                                               ; preds = %46
  store ptr %26, ptr %5, align 8, !tbaa !121
  br label %.thread

50:                                               ; preds = %39
  %51 = load i64, ptr @H5E_DATASET_g, align 8, !tbaa !24
  %52 = load i64, ptr @H5E_WRITEERROR_g, align 8, !tbaa !24
  %53 = tail call i32 (ptr, ptr, i32, i64, i64, ptr, ...) @H5E_printf_stack(ptr noundef nonnull @.str.1, ptr noundef nonnull @__func__.H5D__virtual_build_source_name, i32 noundef 1354, i64 noundef %51, i64 noundef %52, ptr noundef nonnull @.str.86) #14
  tail call void @free(ptr noundef nonnull %26) #14
  br label %.thread

.thread:                                          ; preds = %49, %28, %19, %17, %6, %50
  %.046 = phi i32 [ -1, %50 ], [ 0, %6 ], [ 0, %49 ], [ -1, %28 ], [ 0, %19 ], [ 0, %17 ]
  ret i32 %.046
}